; Function Attrs: mustprogress uwtable
define void @_ZN7Imf_3_29InputFile11rawTileDataERiS1_S1_S1_RPKcS1_(ptr nocapture noundef nonnull readonly align 8 dereferenceable(16) %this, ptr noundef nonnull align 4 dereferenceable(4) %dx, ptr noundef nonnull align 4 dereferenceable(4) %dy, ptr noundef nonnull align 4 dereferenceable(4) %lx, ptr noundef nonnull align 4 dereferenceable(4) %ly, ptr noundef nonnull align 8 dereferenceable(8) %pixelData, ptr noundef nonnull align 4 dereferenceable(4) %pixelDataSize) local_unnamed_addr #3 align 2 personality ptr @__gxx_personality_v0 {
entry:
  %_iex_replace_s = alloca %"class.std::__cxx11::basic_stringstream", align 8
  %_data = getelementptr inbounds i8, ptr %this, i64 8
  %0 = load ptr, ptr %_data, align 8
  %isTiled = getelementptr inbounds i8, ptr %0, i64 100
  %1 = load i8, ptr %isTiled, align 4
  %2 = and i8 %1, 1
  %tobool.not = icmp eq i8 %2, 0
  br i1 %tobool.not, label %if.then, label %if.end

if.then:                                          ; preds = %entry
  %exception = tail call ptr @__cxa_allocate_exception(i64 72) #20
  invoke void @_ZN7Iex_3_26ArgExcC1EPKc(ptr noundef nonnull align 8 dereferenceable(72) %exception, ptr noundef nonnull @.str.17)
          to label %invoke.cont unwind label %lpad

invoke.cont:                                      ; preds = %if.then
  invoke void @__cxa_throw(ptr nonnull %exception, ptr nonnull @_ZTIN7Iex_3_26ArgExcE, ptr nonnull @_ZN7Iex_3_26ArgExcD1Ev) #22
          to label %unreachable unwind label %lpad2

lpad:                                             ; preds = %if.then
  %3 = landingpad { ptr, i32 }
          cleanup
          catch ptr @_ZTIN7Iex_3_27BaseExcE
  tail call void @__cxa_free_exception(ptr %exception) #20
  br label %catch.dispatch

lpad2:                                            ; preds = %if.end, %invoke.cont
  %4 = landingpad { ptr, i32 }
          catch ptr @_ZTIN7Iex_3_27BaseExcE
  br label %catch.dispatch

catch.dispatch:                                   ; preds = %lpad2, %lpad
  %.pn = phi { ptr, i32 } [ %4, %lpad2 ], [ %3, %lpad ]
  %ehselector.slot.0 = extractvalue { ptr, i32 } %.pn, 1
  %5 = tail call i32 @llvm.eh.typeid.for(ptr nonnull @_ZTIN7Iex_3_27BaseExcE) #20
  %matches = icmp eq i32 %ehselector.slot.0, %5
  br i1 %matches, label %catch, label %eh.resume

catch:                                            ; preds = %catch.dispatch
  %exn.slot.0 = extractvalue { ptr, i32 } %.pn, 0
  %6 = tail call ptr @__cxa_begin_catch(ptr %exn.slot.0) #20
  invoke void @_ZNSt7__cxx1118basic_stringstreamIcSt11char_traitsIcESaIcEEC1Ev(ptr noundef nonnull align 8 dereferenceable(128) %_iex_replace_s)
          to label %invoke.cont6 unwind label %lpad5

invoke.cont6:                                     ; preds = %catch
  %add.ptr = getelementptr inbounds i8, ptr %_iex_replace_s, i64 16
  %call = invoke noundef nonnull align 8 dereferenceable(8) ptr @_ZStlsISt11char_traitsIcEERSt13basic_ostreamIcT_ES5_PKc(ptr noundef nonnull align 8 dereferenceable(8) %add.ptr, ptr noundef nonnull @.str.18)
          to label %invoke.cont8 unwind label %lpad7

invoke.cont8:                                     ; preds = %invoke.cont6
  %7 = load ptr, ptr %_data, align 8
  %_streamData.i = getelementptr inbounds i8, ptr %7, i64 248
  %8 = load ptr, ptr %_streamData.i, align 8
  %is.i = getelementptr inbounds i8, ptr %8, i64 40
  %9 = load ptr, ptr %is.i, align 8
  %call.i6 = invoke noundef ptr @_ZNK7Imf_3_27IStream8fileNameEv(ptr noundef nonnull align 8 dereferenceable(40) %9)
          to label %invoke.cont9 unwind label %lpad7

invoke.cont9:                                     ; preds = %invoke.cont8
  %call12 = invoke noundef nonnull align 8 dereferenceable(8) ptr @_ZStlsISt11char_traitsIcEERSt13basic_ostreamIcT_ES5_PKc(ptr noundef nonnull align 8 dereferenceable(8) %call, ptr noundef %call.i6)
          to label %invoke.cont11 unwind label %lpad7

invoke.cont11:                                    ; preds = %invoke.cont9
  %call14 = invoke noundef nonnull align 8 dereferenceable(8) ptr @_ZStlsISt11char_traitsIcEERSt13basic_ostreamIcT_ES5_PKc(ptr noundef nonnull align 8 dereferenceable(8) %call12, ptr noundef nonnull @.str.11)
          to label %invoke.cont13 unwind label %lpad7

invoke.cont13:                                    ; preds = %invoke.cont11
  %vtable = load ptr, ptr %6, align 8
  %vfn = getelementptr inbounds i8, ptr %vtable, i64 16
  %10 = load ptr, ptr %vfn, align 8
  %call15 = call noundef ptr %10(ptr noundef nonnull align 8 dereferenceable(72) %6) #20
  %call17 = invoke noundef nonnull align 8 dereferenceable(8) ptr @_ZStlsISt11char_traitsIcEERSt13basic_ostreamIcT_ES5_PKc(ptr noundef nonnull align 8 dereferenceable(8) %call14, ptr noundef %call15)
          to label %invoke.cont16 unwind label %lpad7

invoke.cont16:                                    ; preds = %invoke.cont13
  %call19 = invoke noundef nonnull align 8 dereferenceable(72) ptr @_ZN7Iex_3_27BaseExc6assignERNSt7__cxx1118basic_stringstreamIcSt11char_traitsIcESaIcEEE(ptr noundef nonnull align 8 dereferenceable(72) %6, ptr noundef nonnull align 8 dereferenceable(128) %_iex_replace_s)
          to label %invoke.cont18 unwind label %lpad7

invoke.cont18:                                    ; preds = %invoke.cont16
  call void @_ZNSt7__cxx1118basic_stringstreamIcSt11char_traitsIcESaIcEED1Ev(ptr noundef nonnull align 8 dereferenceable(128) %_iex_replace_s) #20
  invoke void @__cxa_rethrow() #22
          to label %unreachable unwind label %lpad5

if.end:                                           ; preds = %entry
  %tFile = getelementptr inbounds i8, ptr %0, i64 104
  %11 = load ptr, ptr %tFile, align 8
  invoke void @_ZN7Imf_3_214TiledInputFile11rawTileDataERiS1_S1_S1_RPKcS1_(ptr noundef nonnull align 8 dereferenceable(16) %11, ptr noundef nonnull align 4 dereferenceable(4) %dx, ptr noundef nonnull align 4 dereferenceable(4) %dy, ptr noundef nonnull align 4 dereferenceable(4) %lx, ptr noundef nonnull align 4 dereferenceable(4) %ly, ptr noundef nonnull align 8 dereferenceable(8) %pixelData, ptr noundef nonnull align 4 dereferenceable(4) %pixelDataSize)
          to label %try.cont unwind label %lpad2

lpad5:                                            ; preds = %invoke.cont18, %catch
  %12 = landingpad { ptr, i32 }
          cleanup
  br label %ehcleanup

lpad7:                                            ; preds = %invoke.cont8, %invoke.cont16, %invoke.cont13, %invoke.cont11, %invoke.cont9, %invoke.cont6
  %13 = landingpad { ptr, i32 }
          cleanup
  call void @_ZNSt7__cxx1118basic_stringstreamIcSt11char_traitsIcESaIcEED1Ev(ptr noundef nonnull align 8 dereferenceable(128) %_iex_replace_s) #20
  br label %ehcleanup

ehcleanup:                                        ; preds = %lpad7, %lpad5
  %.pn4 = phi { ptr, i32 } [ %12, %lpad5 ], [ %13, %lpad7 ]
  invoke void @__cxa_end_catch()
          to label %eh.resume unwind label %terminate.lpad

try.cont:                                         ; preds = %if.end
  ret void

eh.resume:                                        ; preds = %ehcleanup, %catch.dispatch
  %lpad.val23.merged = phi { ptr, i32 } [ %.pn4, %ehcleanup ], [ %.pn, %catch.dispatch ]
  resume { ptr, i32 } %lpad.val23.merged

terminate.lpad:                                   ; preds = %ehcleanup
  %14 = landingpad { ptr, i32 }
          catch ptr null
  %15 = extractvalue { ptr, i32 } %14, 0
  call void @__clang_call_terminate(ptr %15) #21
  unreachable

unreachable:                                      ; preds = %invoke.cont18, %invoke.cont
  unreachable
}